target datalayout = "e-m:e-p270:32:32-p271:32:32-p272:64:64-i64:64-i128:128-f80:128-n8:16:32:64-S128"
target triple = "x86_64-pc-linux-gnu"

%class.mpz = type { i32, i8, ptr }
%class.svector.1 = type { %class.vector.2 }
%class.vector.2 = type { ptr }
%"class.upolynomial::core_manager" = type { ptr, %class.mpzzp_manager, %class.svector.1, %class.svector.1, %class.svector.1, %class.svector.1, %class.svector.1, %class.svector.1, %class.svector.1, [6 x %class.svector.1], %class.svector.1, %class.svector.1, %class.svector.1 }
%class.mpzzp_manager = type { ptr, i8, %class.mpz, %class.mpz, %class.mpz, i8, %class.mpz, %class.mpz, %class.mpz, %class.mpz }

; Function Attrs: mustprogress nounwind uwtable
define linkonce_odr hidden noundef ptr @_ZNK6vectorI3mpzLb0EjE4dataEv(ptr noundef nonnull align 8 dereferenceable(8) %0) #5 comdat align 2 {
  %2 = alloca ptr, align 8
  store ptr %0, ptr %2, align 8, !tbaa !40
  %3 = load ptr, ptr %2, align 8
  %4 = getelementptr inbounds nuw %class.vector.2, ptr %3, i32 0, i32 0
  %5 = load ptr, ptr %4, align 8, !tbaa !44
  ret ptr %5
}

; Function Attrs: mustprogress nounwind uwtable
define linkonce_odr hidden noundef i32 @_ZNK6vectorI3mpzLb0EjE4sizeEv(ptr noundef nonnull align 8 dereferenceable(8) %0) #5 comdat align 2 {
  %2 = alloca i32, align 4
  %3 = alloca ptr, align 8
  store ptr %0, ptr %3, align 8, !tbaa !40
  %4 = load ptr, ptr %3, align 8
  %5 = getelementptr inbounds nuw %class.vector.2, ptr %4, i32 0, i32 0
  %6 = load ptr, ptr %5, align 8, !tbaa !44
  %7 = icmp eq ptr %6, null
  br i1 %7, label %8, label %9

8:                                                ; preds = %1
  store i32 0, ptr %2, align 4
  br label %14

9:                                                ; preds = %1
  %10 = getelementptr inbounds nuw %class.vector.2, ptr %4, i32 0, i32 0
  %11 = load ptr, ptr %10, align 8, !tbaa !44
  %12 = getelementptr inbounds i32, ptr %11, i64 -1
  %13 = load i32, ptr %12, align 4, !tbaa !33
  store i32 %13, ptr %2, align 4
  br label %14

14:                                               ; preds = %9, %8
  %15 = load i32, ptr %2, align 4
  ret i32 %15
}

; Function Attrs: mustprogress uwtable
define hidden noundef zeroext i1 @_ZN11upolynomial12core_manager14is_square_freeEjPK3mpz(ptr noundef nonnull align 8 dereferenceable(272) %0, i32 noundef %1, ptr noundef %2) #4 align 2 {
  %4 = alloca i1, align 1
  %5 = alloca ptr, align 8
  %6 = alloca i32, align 4
  %7 = alloca ptr, align 8
  %8 = alloca ptr, align 8
  %9 = alloca ptr, align 8
  store ptr %0, ptr %5, align 8, !tbaa !8
  store i32 %1, ptr %6, align 4, !tbaa !33
  store ptr %2, ptr %7, align 8, !tbaa !26
  %10 = load ptr, ptr %5, align 8
  %11 = load i32, ptr %6, align 4, !tbaa !33
  %12 = icmp ule i32 %11, 1
  br i1 %12, label %13, label %14

13:                                               ; preds = %3
  store i1 true, ptr %4, align 1
  br label %30

14:                                               ; preds = %3
  call void @llvm.lifetime.start.p0(i64 8, ptr %8) #3
  %15 = getelementptr inbounds nuw %"class.upolynomial::core_manager", ptr %10, i32 0, i32 10
  store ptr %15, ptr %8, align 8, !tbaa !38
  call void @llvm.lifetime.start.p0(i64 8, ptr %9) #3
  %16 = getelementptr inbounds nuw %"class.upolynomial::core_manager", ptr %10, i32 0, i32 11
  store ptr %16, ptr %9, align 8, !tbaa !38
  %17 = load i32, ptr %6, align 4, !tbaa !33
  %18 = load ptr, ptr %7, align 8, !tbaa !26
  %19 = load ptr, ptr %8, align 8, !tbaa !38
  call void @_ZN11upolynomial12core_manager10derivativeEjPK3mpzR7svectorIS1_jE(ptr noundef nonnull align 8 dereferenceable(272) %10, i32 noundef %17, ptr noundef %18, ptr noundef nonnull align 8 dereferenceable(8) %19)
  %20 = load i32, ptr %6, align 4, !tbaa !33
  %21 = load ptr, ptr %7, align 8, !tbaa !26
  %22 = load ptr, ptr %8, align 8, !tbaa !38
  %23 = call noundef i32 @_ZNK6vectorI3mpzLb0EjE4sizeEv(ptr noundef nonnull align 8 dereferenceable(8) %22)
  %24 = load ptr, ptr %8, align 8, !tbaa !38
  %25 = call noundef ptr @_ZNK6vectorI3mpzLb0EjE4dataEv(ptr noundef nonnull align 8 dereferenceable(8) %24)
  %26 = load ptr, ptr %9, align 8, !tbaa !38
  call void @_ZN11upolynomial12core_manager3gcdEjPK3mpzjS3_R7svectorIS1_jE(ptr noundef nonnull align 8 dereferenceable(272) %10, i32 noundef %20, ptr noundef %21, i32 noundef %23, ptr noundef %25, ptr noundef nonnull align 8 dereferenceable(8) %26)
  %27 = load ptr, ptr %9, align 8, !tbaa !38
  %28 = call noundef i32 @_ZNK6vectorI3mpzLb0EjE4sizeEv(ptr noundef nonnull align 8 dereferenceable(8) %27)
  %29 = icmp ule i32 %28, 1
  store i1 %29, ptr %4, align 1
  call void @llvm.lifetime.end.p0(i64 8, ptr %9) #3
  call void @llvm.lifetime.end.p0(i64 8, ptr %8) #3
  br label %30

30:                                               ; preds = %14, %13
  %31 = load i1, ptr %4, align 1
  ret i1 %31
}