; Function Attrs: mustprogress uwtable
define hidden noundef zeroext i1 @_ZN11upolynomial12core_manager14is_square_freeEjPK3mpz(ptr noundef nonnull align 8 dereferenceable(272) %0, i32 noundef %1, ptr noundef %2) local_unnamed_addr #3 align 2 {
  %4 = icmp ult i32 %1, 2
  br i1 %4, label %_ZNK6vectorI3mpzLb0EjE4sizeEv.exit13, label %5

5:                                                ; preds = %3
  %6 = getelementptr inbounds nuw i8, ptr %0, i64 248
  %7 = getelementptr inbounds nuw i8, ptr %0, i64 256
  tail call void @_ZN11upolynomial12core_manager10derivativeEjPK3mpzR7svectorIS1_jE(ptr noundef nonnull align 8 dereferenceable(272) %0, i32 noundef %1, ptr noundef %2, ptr noundef nonnull align 8 dereferenceable(8) %6)
  %8 = load ptr, ptr %6, align 8, !tbaa !28
  %9 = icmp eq ptr %8, null
  br i1 %9, label %_ZNK6vectorI3mpzLb0EjE4sizeEv.exit, label %10

10:                                               ; preds = %5
  %11 = getelementptr inbounds i8, ptr %8, i64 -4
  %12 = load i32, ptr %11, align 4, !tbaa !27
  br label %_ZNK6vectorI3mpzLb0EjE4sizeEv.exit

_ZNK6vectorI3mpzLb0EjE4sizeEv.exit:               ; preds = %5, %10
  %.0.i = phi i32 [ %12, %10 ], [ 0, %5 ]
  tail call void @_ZN11upolynomial12core_manager3gcdEjPK3mpzjS3_R7svectorIS1_jE(ptr noundef nonnull align 8 dereferenceable(272) %0, i32 noundef %1, ptr noundef %2, i32 noundef %.0.i, ptr noundef %8, ptr noundef nonnull align 8 dereferenceable(8) %7)
  %13 = load ptr, ptr %7, align 8, !tbaa !28
  %14 = icmp eq ptr %13, null
  br i1 %14, label %_ZNK6vectorI3mpzLb0EjE4sizeEv.exit13, label %15

15:                                               ; preds = %_ZNK6vectorI3mpzLb0EjE4sizeEv.exit
  %16 = getelementptr inbounds i8, ptr %13, i64 -4
  %17 = load i32, ptr %16, align 4, !tbaa !27
  %18 = icmp ult i32 %17, 2
  br label %_ZNK6vectorI3mpzLb0EjE4sizeEv.exit13

_ZNK6vectorI3mpzLb0EjE4sizeEv.exit13:             ; preds = %15, %_ZNK6vectorI3mpzLb0EjE4sizeEv.exit, %3
  %.0 = phi i1 [ true, %3 ], [ %18, %15 ], [ true, %_ZNK6vectorI3mpzLb0EjE4sizeEv.exit ]
  ret i1 %.0
}